target datalayout = "e-m:e-p270:32:32-p271:32:32-p272:64:64-i64:64-i128:128-f80:128-n8:16:32:64-S128"
target triple = "x86_64-pc-linux-gnu"

%struct.point16_t = type { i16, i16 }

@hf_point16_x = internal global i32 0, align 4
@hf_point16_y = internal global i32 0, align 4
@ett_point16 = internal global i32 0, align 4
@.str.952 = private unnamed_addr constant [17 x i8] c"POINT16 (%d, %d)\00", align 1

; Function Attrs: null_pointer_is_valid sspstrong uwtable
define internal i32 @dissect_POINT16(ptr noundef %0, ptr noundef %1, i32 noundef %2) #0 {
  %4 = alloca %struct.point16_t, align 2
  %5 = alloca ptr, align 8
  %6 = alloca ptr, align 8
  %7 = alloca i32, align 4
  %8 = alloca ptr, align 8
  store ptr %0, ptr %5, align 8
  store ptr %1, ptr %6, align 8
  store i32 %2, ptr %7, align 4
  call void @llvm.lifetime.start.p0(i64 8, ptr %8) #6
  %9 = load ptr, ptr %5, align 8
  %10 = load i32, ptr %7, align 4
  %11 = call signext i16 @tvb_get_letohis(ptr noundef %9, i32 noundef %10)
  %12 = getelementptr inbounds nuw %struct.point16_t, ptr %4, i32 0, i32 0
  store i16 %11, ptr %12, align 2
  %13 = load ptr, ptr %5, align 8
  %14 = load i32, ptr %7, align 4
  %15 = add i32 %14, 2
  %16 = call signext i16 @tvb_get_letohis(ptr noundef %13, i32 noundef %15)
  %17 = getelementptr inbounds nuw %struct.point16_t, ptr %4, i32 0, i32 1
  store i16 %16, ptr %17, align 2
  %18 = load ptr, ptr %6, align 8
  %19 = icmp ne ptr %18, null
  br i1 %19, label %20, label %43

20:                                               ; preds = %3
  %21 = load ptr, ptr %6, align 8
  %22 = load ptr, ptr %5, align 8
  %23 = load i32, ptr %7, align 4
  %24 = load i32, ptr @ett_point16, align 4
  %25 = getelementptr inbounds nuw %struct.point16_t, ptr %4, i32 0, i32 0
  %26 = load i16, ptr %25, align 2
  %27 = sext i16 %26 to i32
  %28 = getelementptr inbounds nuw %struct.point16_t, ptr %4, i32 0, i32 1
  %29 = load i16, ptr %28, align 2
  %30 = sext i16 %29 to i32
  %31 = call ptr (ptr, ptr, i32, i32, i32, ptr, ptr, ...) @proto_tree_add_subtree_format(ptr noundef %21, ptr noundef %22, i32 noundef %23, i32 noundef 4, i32 noundef %24, ptr noundef null, ptr noundef @.str.952, i32 noundef %27, i32 noundef %30)
  store ptr %31, ptr %8, align 8
  %32 = load ptr, ptr %8, align 8
  %33 = load i32, ptr @hf_point16_x, align 4
  %34 = load ptr, ptr %5, align 8
  %35 = load i32, ptr %7, align 4
  %36 = call ptr @proto_tree_add_item(ptr noundef %32, i32 noundef %33, ptr noundef %34, i32 noundef %35, i32 noundef 2, i32 noundef -2147483648)
  %37 = load ptr, ptr %8, align 8
  %38 = load i32, ptr @hf_point16_y, align 4
  %39 = load ptr, ptr %5, align 8
  %40 = load i32, ptr %7, align 4
  %41 = add i32 %40, 2
  %42 = call ptr @proto_tree_add_item(ptr noundef %37, i32 noundef %38, ptr noundef %39, i32 noundef %41, i32 noundef 2, i32 noundef -2147483648)
  br label %43

43:                                               ; preds = %20, %3
  call void @llvm.lifetime.end.p0(i64 8, ptr %8) #6
  %44 = load i32, ptr %4, align 2
  ret i32 %44
}