; Function Attrs: null_pointer_is_valid sspstrong uwtable
define internal fastcc void @dissect_POINT16(ptr noundef %0, ptr noundef %1, i32 noundef %2) unnamed_addr #0 {
  %4 = tail call signext i16 @tvb_get_letohis(ptr noundef %0, i32 noundef %2)
  %5 = add i32 %2, 2
  %6 = tail call signext i16 @tvb_get_letohis(ptr noundef %0, i32 noundef %5)
  %.not = icmp eq ptr %1, null
  br i1 %.not, label %16, label %7

7:                                                ; preds = %3
  %8 = load i32, ptr @ett_point16, align 4
  %9 = sext i16 %4 to i32
  %10 = sext i16 %6 to i32
  %11 = tail call ptr (ptr, ptr, i32, i32, i32, ptr, ptr, ...) @proto_tree_add_subtree_format(ptr noundef nonnull %1, ptr noundef %0, i32 noundef %2, i32 noundef 4, i32 noundef %8, ptr noundef null, ptr noundef nonnull @.str.952, i32 noundef %9, i32 noundef %10)
  %12 = load i32, ptr @hf_point16_x, align 4
  %13 = tail call ptr @proto_tree_add_item(ptr noundef %11, i32 noundef %12, ptr noundef %0, i32 noundef %2, i32 noundef 2, i32 noundef -2147483648)
  %14 = load i32, ptr @hf_point16_y, align 4
  %15 = tail call ptr @proto_tree_add_item(ptr noundef %11, i32 noundef %14, ptr noundef %0, i32 noundef %5, i32 noundef 2, i32 noundef -2147483648)
  br label %16

16:                                               ; preds = %7, %3
  ret void
}